; Function Attrs: mustprogress uwtable
define void @_ZN9grpc_core13MetadataQueryC2ENSt7__cxx1112basic_stringIcSt11char_traitsIcESaIcEEEP19grpc_polling_entityN4absl12lts_2023080212AnyInvocableIFvS6_NSA_8StatusOrIS6_EEEEENS_8DurationE(ptr noundef nonnull align 16 dereferenceable(176) %this, ptr noundef %attribute, ptr noundef %pollent, ptr noundef %callback, i64 %timeout.coerce) unnamed_addr #3 align 2 personality ptr @__gxx_personality_v0 {
entry:
  %agg.tmp = alloca %"class.std::__cxx11::basic_string", align 8
  %ref.tmp = alloca %"class.std::allocator", align 1
  %agg.tmp2 = alloca %"class.std::__cxx11::basic_string", align 8
  %agg.tmp3 = alloca %"class.absl::lts_20230802::AnyInvocable", align 16
  call void @_ZNSaIcEC1Ev(ptr noundef nonnull align 1 dereferenceable(1) %ref.tmp) #15
  %call.i2 = invoke noundef ptr @_ZNSt7__cxx1112basic_stringIcSt11char_traitsIcESaIcEE13_M_local_dataEv(ptr noundef nonnull align 8 dereferenceable(32) %agg.tmp)
          to label %call.i.noexc unwind label %lpad

call.i.noexc:                                     ; preds = %entry
  invoke void @_ZNSt7__cxx1112basic_stringIcSt11char_traitsIcESaIcEE12_Alloc_hiderC1EPcRKS3_(ptr noundef nonnull align 8 dereferenceable(8) %agg.tmp, ptr noundef %call.i2, ptr noundef nonnull align 1 dereferenceable(1) %ref.tmp)
          to label %.noexc unwind label %lpad

.noexc:                                           ; preds = %call.i.noexc
  invoke void @_ZNSt7__cxx1112basic_stringIcSt11char_traitsIcESaIcEE12_M_constructIPKcEEvT_S8_St20forward_iterator_tag(ptr noundef nonnull align 8 dereferenceable(32) %agg.tmp, ptr noundef nonnull @.str.2, ptr noundef nonnull getelementptr inbounds ([26 x i8], ptr @.str.2, i64 0, i64 25))
          to label %invoke.cont unwind label %lpad.i

lpad.i:                                           ; preds = %.noexc
  %0 = landingpad { ptr, i32 }
          cleanup
  call void @_ZNSaIcED2Ev(ptr noundef nonnull align 1 dereferenceable(1) %agg.tmp) #15
  br label %ehcleanup

invoke.cont:                                      ; preds = %.noexc
  call void @_ZNSt7__cxx1112basic_stringIcSt11char_traitsIcESaIcEEC1EOS4_(ptr noundef nonnull align 8 dereferenceable(32) %agg.tmp2, ptr noundef nonnull align 8 dereferenceable(32) %attribute) #15
  %manager_.i.i.i = getelementptr inbounds i8, ptr %callback, i64 16
  %1 = load ptr, ptr %manager_.i.i.i, align 16
  call void %1(i1 noundef zeroext false, ptr noundef nonnull %callback, ptr noundef nonnull %agg.tmp3) #15
  %manager_5.i.i.i = getelementptr inbounds i8, ptr %agg.tmp3, i64 16
  %invoker_.i.i.i = getelementptr inbounds i8, ptr %callback, i64 24
  %2 = load <2 x ptr>, ptr %manager_.i.i.i, align 16
  store <2 x ptr> %2, ptr %manager_5.i.i.i, align 16
  store ptr @_ZN4absl12lts_2023080222internal_any_invocable12EmptyManagerENS1_14FunctionToCallEPNS1_15TypeErasedStateES4_, ptr %manager_.i.i.i, align 16
  store ptr null, ptr %invoker_.i.i.i, align 8
  invoke void @_ZN9grpc_core13MetadataQueryC2ENSt7__cxx1112basic_stringIcSt11char_traitsIcESaIcEEES6_P19grpc_polling_entityN4absl12lts_2023080212AnyInvocableIFvS6_NSA_8StatusOrIS6_EEEEENS_8DurationE(ptr noundef nonnull align 16 dereferenceable(176) %this, ptr noundef nonnull %agg.tmp, ptr noundef nonnull %agg.tmp2, ptr noundef %pollent, ptr noundef nonnull %agg.tmp3, i64 %timeout.coerce)
          to label %invoke.cont7 unwind label %lpad6

invoke.cont7:                                     ; preds = %invoke.cont
  %3 = load ptr, ptr %manager_5.i.i.i, align 16
  call void %3(i1 noundef zeroext true, ptr noundef nonnull %agg.tmp3, ptr noundef nonnull %agg.tmp3) #15
  call void @_ZNSt7__cxx1112basic_stringIcSt11char_traitsIcESaIcEED1Ev(ptr noundef nonnull align 8 dereferenceable(32) %agg.tmp2) #15
  call void @_ZNSt7__cxx1112basic_stringIcSt11char_traitsIcESaIcEED1Ev(ptr noundef nonnull align 8 dereferenceable(32) %agg.tmp) #15
  call void @_ZNSaIcED1Ev(ptr noundef nonnull align 1 dereferenceable(1) %ref.tmp) #15
  ret void

lpad:                                             ; preds = %call.i.noexc, %entry
  %4 = landingpad { ptr, i32 }
          cleanup
  br label %ehcleanup

lpad6:                                            ; preds = %invoke.cont
  %5 = landingpad { ptr, i32 }
          cleanup
  %6 = load ptr, ptr %manager_5.i.i.i, align 16
  call void %6(i1 noundef zeroext true, ptr noundef nonnull %agg.tmp3, ptr noundef nonnull %agg.tmp3) #15
  call void @_ZNSt7__cxx1112basic_stringIcSt11char_traitsIcESaIcEED1Ev(ptr noundef nonnull align 8 dereferenceable(32) %agg.tmp2) #15
  call void @_ZNSt7__cxx1112basic_stringIcSt11char_traitsIcESaIcEED1Ev(ptr noundef nonnull align 8 dereferenceable(32) %agg.tmp) #15
  br label %ehcleanup

ehcleanup:                                        ; preds = %lpad, %lpad.i, %lpad6
  %.pn = phi { ptr, i32 } [ %5, %lpad6 ], [ %4, %lpad ], [ %0, %lpad.i ]
  call void @_ZNSaIcED1Ev(ptr noundef nonnull align 1 dereferenceable(1) %ref.tmp) #15
  resume { ptr, i32 } %.pn
}